Certificate:
    Data:
        Version: 1 (0x0)
        Serial Number: 96 (0x60)
        Signature Algorithm: md5WithRSAEncryption
        Issuer: C=SG, ST=Some-State, O=SUTD, OU=ISTD, CN=Liang Shuailong/emailAddress=liangshuailong@gmail.com
        Validity
            Not Before: Apr  7 04:35:50 2017 GMT
            Not After : Apr  7 04:35:50 2018 GMT
        Subject: C=SG, L=SIngapore, O=SUTD, OU=ISTD, CN=Ryan/emailAddress=ryan_zhong@mymail.sutd.edu.sg
        Subject Public Key Info:
            Public Key Algorithm: rsaEncryption
            RSA Public Key: (1024 bit)
                Modulus (1024 bit):
                    00:b1:05:d7:5b:e4:32:10:7b:3e:d3:5b:d4:72:7d:
                    3b:6b:d8:d6:f3:12:06:0c:ce:4a:74:9a:b1:f1:2d:
                    35:f7:fa:a1:01:2a:d5:4b:2f:a0:85:f5:43:86:e1:
                    78:ba:51:30:66:70:7e:4c:f3:5c:b3:3a:d7:59:47:
                    f5:2b:81:6a:97:db:78:a5:a0:6e:59:5c:48:df:74:
                    4d:94:2f:56:89:67:fc:a7:c4:d4:f7:7d:07:35:24:
                    3f:14:bb:4e:0a:7c:22:08:a0:3f:0e:e4:76:54:3a:
                    e4:58:29:0b:ba:d5:9c:fd:8a:d3:25:54:73:76:af:
                    18:f7:06:0b:35:fc:6b:8c:39
                Exponent: 65537 (0x10001)
    Signature Algorithm: md5WithRSAEncryption
        97:a1:a5:2d:16:80:f9:9d:84:bc:54:0f:e7:f4:78:0b:76:55:
        dd:5e:ae:ef:50:61:2a:b4:53:b3:0b:5f:df:25:ee:64:8d:cc:
        b7:5b:e5:23:cd:b8:21:0f:c8:46:72:7c:19:83:20:df:05:cb:
        b6:f7:d6:28:8f:20:e8:8f:2e:b5:94:bb:5c:5f:93:38:6e:97:
        bd:6a:73:4a:c4:7e:d9:3c:c7:41:a6:eb:23:a2:b3:25:43:1d:
        44:9d:05:82:30:4a:43:46:a5:27:b5:7d:b3:a9:70:b5:a5:71:
        4e:51:17:c5:5e:3c:4c:65:b9:06:37:53:68:48:90:48:5f:0b:
        cf:ef
-----BEGIN CERTIFICATE-----
MIICbzCCAdgCAWAwDQYJKoZIhvcNAQEEBQAwgYMxCzAJBgNVBAYTAlNHMRMwEQYD
VQQIEwpTb21lLVN0YXRlMQ0wCwYDVQQKEwRTVVREMQ0wCwYDVQQLEwRJU1REMRgw
FgYDVQQDEw9MaWFuZyBTaHVhaWxvbmcxJzAlBgkqhkiG9w0BCQEWGGxpYW5nc2h1
YWlsb25nQGdtYWlsLmNvbTAeFw0xNzA0MDcwNDM1NTBaFw0xODA0MDcwNDM1NTBa
MHwxCzAJBgNVBAYTAlNHMRIwEAYDVQQHDAlTSW5nYXBvcmUxDTALBgNVBAoMBFNV
VEQxDTALBgNVBAsMBElTVEQxDTALBgNVBAMMBFJ5YW4xLDAqBgkqhkiG9w0BCQEW
HXJ5YW5femhvbmdAbXltYWlsLnN1dGQuZWR1LnNnMIGfMA0GCSqGSIb3DQEBAQUA
A4GNADCBiQKBgQCxBddb5DIQez7TW9RyfTtr2NbzEgYMzkp0mrHxLTX3+qEBKtVL
L6CF9UOG4Xi6UTBmcH5M81yzOtdZR/UrgWqX23iloG5ZXEjfdE2UL1aJZ/ynxNT3
fQc1JD8Uu04KfCIIoD8O5HZUOuRYKQu61Zz9itMlVHN2rxj3Bgs1/GuMOQIDAQAB
MA0GCSqGSIb3DQEBBAUAA4GBAJehpS0WgPmdhLxUD+f0eAt2Vd1eru9QYSq0U7ML
X98l7mSNzLdb5SPNuCEPyEZyfBmDIN8Fy7b31iiPIOiPLrWUu1xfkzhul71qc0rE
ftk8x0Gm6yOisyVDHUSdBYIwSkNGpSe1fbOpcLWlcU5RF8VePExluQY3U2hIkEhf
C8/v
-----END CERTIFICATE-----
